target datalayout = "e-m:e-p270:32:32-p271:32:32-p272:64:64-i64:64-i128:128-f80:128-n8:16:32:64-S128"
target triple = "x86_64-pc-linux-gnu"

; Function Attrs: nounwind uwtable
define i32 @wolfSSL_NewThread(ptr noundef %0, ptr noundef %1, ptr noundef %2) #0 {
  %4 = alloca i32, align 4
  %5 = alloca ptr, align 8
  %6 = alloca ptr, align 8
  %7 = alloca ptr, align 8
  store ptr %0, ptr %5, align 8, !tbaa !12
  store ptr %1, ptr %6, align 8, !tbaa !14
  store ptr %2, ptr %7, align 8, !tbaa !14
  %8 = load ptr, ptr %5, align 8, !tbaa !12
  %9 = icmp eq ptr %8, null
  br i1 %9, label %13, label %10

10:                                               ; preds = %3
  %11 = load ptr, ptr %6, align 8, !tbaa !14
  %12 = icmp eq ptr %11, null
  br i1 %12, label %13, label %14

13:                                               ; preds = %10, %3
  store i32 -173, ptr %4, align 4
  br label %22

14:                                               ; preds = %10
  %15 = load ptr, ptr %5, align 8, !tbaa !12
  %16 = load ptr, ptr %6, align 8, !tbaa !14
  %17 = load ptr, ptr %7, align 8, !tbaa !14
  %18 = call i32 @pthread_create(ptr noundef %15, ptr noundef null, ptr noundef %16, ptr noundef %17) #7
  %19 = icmp ne i32 %18, 0
  br i1 %19, label %20, label %21

20:                                               ; preds = %14
  store i32 -125, ptr %4, align 4
  br label %22

21:                                               ; preds = %14
  store i32 0, ptr %4, align 4
  br label %22

22:                                               ; preds = %21, %20, %13
  %23 = load i32, ptr %4, align 4
  ret i32 %23
}