; Function Attrs: nounwind uwtable
define range(i32 -173, 1) i32 @wolfSSL_NewThread(ptr noundef %0, ptr noundef %1, ptr noundef %2) local_unnamed_addr #2 {
  %4 = icmp eq ptr %0, null
  %5 = icmp eq ptr %1, null
  %or.cond = or i1 %4, %5
  br i1 %or.cond, label %8, label %6

6:                                                ; preds = %3
  %7 = tail call i32 @pthread_create(ptr noundef nonnull %0, ptr noundef null, ptr noundef nonnull %1, ptr noundef %2) #16
  %.not = icmp eq i32 %7, 0
  %. = select i1 %.not, i32 0, i32 -125
  br label %8

8:                                                ; preds = %6, %3
  %.0 = phi i32 [ -173, %3 ], [ %., %6 ]
  ret i32 %.0
}